target datalayout = "e-m:e-p270:32:32-p271:32:32-p272:64:64-i64:64-i128:128-f80:128-n8:16:32:64-S128"
target triple = "x86_64-pc-linux-gnu"

%struct.SDL_AtomicInt = type { i32 }
%struct.SDL_InitState = type { %struct.SDL_AtomicInt, i64, ptr }

; Function Attrs: nounwind uwtable
define hidden zeroext i1 @SDL_ShouldQuit_REAL(ptr noundef %0) #0 {
  %2 = alloca i1, align 1
  %3 = alloca ptr, align 8
  store ptr %0, ptr %3, align 8
  br label %4

4:                                                ; preds = %17, %1
  %5 = load ptr, ptr %3, align 8
  %6 = getelementptr inbounds nuw %struct.SDL_InitState, ptr %5, i32 0, i32 0
  %7 = call i32 @SDL_GetAtomicInt_REAL(ptr noundef %6)
  %8 = icmp ne i32 %7, 0
  br i1 %8, label %9, label %18

9:                                                ; preds = %4
  %10 = load ptr, ptr %3, align 8
  %11 = getelementptr inbounds nuw %struct.SDL_InitState, ptr %10, i32 0, i32 0
  %12 = call zeroext i1 @SDL_CompareAndSwapAtomicInt_REAL(ptr noundef %11, i32 noundef 2, i32 noundef 3)
  br i1 %12, label %13, label %17

13:                                               ; preds = %9
  %14 = call i64 @SDL_GetCurrentThreadID_REAL()
  %15 = load ptr, ptr %3, align 8
  %16 = getelementptr inbounds nuw %struct.SDL_InitState, ptr %15, i32 0, i32 1
  store i64 %14, ptr %16, align 8
  store i1 true, ptr %2, align 1
  br label %19

17:                                               ; preds = %9
  call void @SDL_Delay_REAL(i32 noundef 1)
  br label %4, !llvm.loop !12

18:                                               ; preds = %4
  store i1 false, ptr %2, align 1
  br label %19

19:                                               ; preds = %18, %13
  %20 = load i1, ptr %2, align 1
  ret i1 %20
}